; Function Attrs: nounwind uwtable
define noalias noundef nonnull ptr @l_Lean_Elab_Command_addMacroScopeIfLocal___at___private_Lean_Elab_Notation_0__Lean_Elab_Command_expandNotationAux___spec__6(ptr noundef %0, ptr noundef %1, ptr noundef %2, ptr noundef %3) local_unnamed_addr #0 {
  %5 = tail call zeroext i8 @l_Lean_Elab_Command_isLocalAttrKind(ptr noundef %1) #6
  %6 = icmp eq i8 %5, 0
  br i1 %6, label %7, label %20

7:                                                ; preds = %4
  %8 = ptrtoint ptr %2 to i64
  %9 = and i64 %8, 1
  %.not45 = icmp eq i64 %9, 0
  br i1 %.not45, label %10, label %lean_dec.exit30

10:                                               ; preds = %7
  %11 = load i32, ptr %2, align 4, !tbaa !8
  %12 = icmp sgt i32 %11, 1
  br i1 %12, label %13, label %15, !prof !11

13:                                               ; preds = %10
  %14 = add nsw i32 %11, -1
  store i32 %14, ptr %2, align 4, !tbaa !8
  br label %lean_dec.exit30

15:                                               ; preds = %10
  %.not.i = icmp eq i32 %11, 0
  br i1 %.not.i, label %lean_dec.exit30, label %16

16:                                               ; preds = %15
  tail call void @lean_dec_ref_cold(ptr noundef nonnull %2) #6
  br label %lean_dec.exit30

lean_dec.exit30:                                  ; preds = %16, %15, %13, %7
  tail call void @lean_inc_heartbeat() #6
  %17 = tail call noalias ptr @mi_malloc_small(i64 noundef 24) #6
  %18 = icmp eq ptr %17, null
  br i1 %18, label %19, label %lean_alloc_ctor.exit

19:                                               ; preds = %lean_dec.exit30
  tail call void @lean_internal_panic_out_of_memory() #7
  unreachable

20:                                               ; preds = %4
  %21 = tail call zeroext i8 @l_Lean_Name_hasMacroScopes(ptr noundef %0) #6
  %22 = icmp eq i8 %21, 0
  br i1 %22, label %23, label %57

23:                                               ; preds = %20
  %24 = getelementptr inbounds nuw i8, ptr %2, i64 16
  %25 = load ptr, ptr %24, align 8, !tbaa !4
  %26 = ptrtoint ptr %25 to i64
  %27 = and i64 %26, 1
  %.not42 = icmp eq i64 %27, 0
  br i1 %.not42, label %28, label %lean_inc.exit31

28:                                               ; preds = %23
  %.val.i = load i32, ptr %25, align 4, !tbaa !8
  %29 = icmp sgt i32 %.val.i, 0
  br i1 %29, label %30, label %32, !prof !11

30:                                               ; preds = %28
  %31 = add nuw i32 %.val.i, 1
  store i32 %31, ptr %25, align 4, !tbaa !8
  br label %lean_inc.exit31

32:                                               ; preds = %28
  %.not.i36 = icmp eq i32 %.val.i, 0
  br i1 %.not.i36, label %lean_inc.exit31, label %33

33:                                               ; preds = %32
  tail call void @lean_inc_ref_cold(ptr noundef nonnull %25) #6
  br label %lean_inc.exit31

lean_inc.exit31:                                  ; preds = %33, %32, %30, %23
  %34 = getelementptr inbounds nuw i8, ptr %2, i64 24
  %35 = load ptr, ptr %34, align 8, !tbaa !4
  %36 = ptrtoint ptr %35 to i64
  %37 = and i64 %36, 1
  %.not43 = icmp eq i64 %37, 0
  br i1 %.not43, label %38, label %lean_inc.exit

38:                                               ; preds = %lean_inc.exit31
  %.val.i37 = load i32, ptr %35, align 4, !tbaa !8
  %39 = icmp sgt i32 %.val.i37, 0
  br i1 %39, label %40, label %42, !prof !11

40:                                               ; preds = %38
  %41 = add nuw i32 %.val.i37, 1
  store i32 %41, ptr %35, align 4, !tbaa !8
  br label %lean_inc.exit

42:                                               ; preds = %38
  %.not.i38 = icmp eq i32 %.val.i37, 0
  br i1 %.not.i38, label %lean_inc.exit, label %43

43:                                               ; preds = %42
  tail call void @lean_inc_ref_cold(ptr noundef nonnull %35) #6
  br label %lean_inc.exit

lean_inc.exit:                                    ; preds = %43, %42, %40, %lean_inc.exit31
  %44 = ptrtoint ptr %2 to i64
  %45 = and i64 %44, 1
  %.not44 = icmp eq i64 %45, 0
  br i1 %.not44, label %46, label %lean_dec.exit29

46:                                               ; preds = %lean_inc.exit
  %47 = load i32, ptr %2, align 4, !tbaa !8
  %48 = icmp sgt i32 %47, 1
  br i1 %48, label %49, label %51, !prof !11

49:                                               ; preds = %46
  %50 = add nsw i32 %47, -1
  store i32 %50, ptr %2, align 4, !tbaa !8
  br label %lean_dec.exit29

51:                                               ; preds = %46
  %.not.i32 = icmp eq i32 %47, 0
  br i1 %.not.i32, label %lean_dec.exit29, label %52

52:                                               ; preds = %51
  tail call void @lean_dec_ref_cold(ptr noundef nonnull %2) #6
  br label %lean_dec.exit29

lean_dec.exit29:                                  ; preds = %52, %51, %49, %lean_inc.exit
  %53 = tail call ptr @l_Lean_addMacroScope(ptr noundef %25, ptr noundef %0, ptr noundef %35) #6
  tail call void @lean_inc_heartbeat() #6
  %54 = tail call noalias ptr @mi_malloc_small(i64 noundef 24) #6
  %55 = icmp eq ptr %54, null
  br i1 %55, label %56, label %lean_alloc_ctor.exit

56:                                               ; preds = %lean_dec.exit29
  tail call void @lean_internal_panic_out_of_memory() #7
  unreachable

57:                                               ; preds = %20
  %58 = ptrtoint ptr %2 to i64
  %59 = and i64 %58, 1
  %.not = icmp eq i64 %59, 0
  br i1 %.not, label %60, label %lean_dec.exit

60:                                               ; preds = %57
  %61 = load i32, ptr %2, align 4, !tbaa !8
  %62 = icmp sgt i32 %61, 1
  br i1 %62, label %63, label %65, !prof !11

63:                                               ; preds = %60
  %64 = add nsw i32 %61, -1
  store i32 %64, ptr %2, align 4, !tbaa !8
  br label %lean_dec.exit

65:                                               ; preds = %60
  %.not.i34 = icmp eq i32 %61, 0
  br i1 %.not.i34, label %lean_dec.exit, label %66

66:                                               ; preds = %65
  tail call void @lean_dec_ref_cold(ptr noundef nonnull %2) #6
  br label %lean_dec.exit

lean_dec.exit:                                    ; preds = %66, %65, %63, %57
  tail call void @lean_inc_heartbeat() #6
  %67 = tail call noalias ptr @mi_malloc_small(i64 noundef 24) #6
  %68 = icmp eq ptr %67, null
  br i1 %68, label %69, label %lean_alloc_ctor.exit

69:                                               ; preds = %lean_dec.exit
  tail call void @lean_internal_panic_out_of_memory() #7
  unreachable

lean_alloc_ctor.exit:                             ; preds = %lean_dec.exit, %lean_dec.exit29, %lean_dec.exit30
  %.sink51 = phi ptr [ %17, %lean_dec.exit30 ], [ %54, %lean_dec.exit29 ], [ %67, %lean_dec.exit ]
  %.sink = phi ptr [ %0, %lean_dec.exit30 ], [ %53, %lean_dec.exit29 ], [ %0, %lean_dec.exit ]
  %70 = getelementptr inbounds nuw i8, ptr %.sink51, i64 4
  store i32 1, ptr %.sink51, align 4, !tbaa !8
  store i32 131096, ptr %70, align 4
  %71 = getelementptr inbounds nuw i8, ptr %.sink51, i64 8
  store ptr %.sink, ptr %71, align 8, !tbaa !4
  %72 = getelementptr inbounds nuw i8, ptr %.sink51, i64 16
  store ptr %3, ptr %72, align 8, !tbaa !4
  ret ptr %.sink51
}